target datalayout = "e-m:e-p270:32:32-p271:32:32-p272:64:64-i64:64-i128:128-f80:128-n8:16:32:64-S128"
target triple = "x86_64-pc-linux-gnu"

@.str.6 = private unnamed_addr constant [41 x i8] c"../openssl/test/provider_internal_test.c\00", align 1
@.str.24 = private unnamed_addr constant [18 x i8] c"p_test_configured\00", align 1
@.str.25 = private unnamed_addr constant [44 x i8] c"Hello OpenSSL, greetings from Test Provider\00", align 1
@.str.26 = private unnamed_addr constant [41 x i8] c"prov = ossl_provider_find(NULL, name, 0)\00", align 1

; Function Attrs: nounwind uwtable
define internal i32 @test_configured_provider() #0 {
  %1 = alloca ptr, align 8
  %2 = alloca ptr, align 8
  %3 = alloca ptr, align 8
  call void @llvm.lifetime.start.p0(i64 8, ptr %1) #3
  store ptr @.str.24, ptr %1, align 8, !tbaa !4
  call void @llvm.lifetime.start.p0(i64 8, ptr %2) #3
  store ptr null, ptr %2, align 8, !tbaa !9
  call void @llvm.lifetime.start.p0(i64 8, ptr %3) #3
  store ptr @.str.25, ptr %3, align 8, !tbaa !4
  %4 = load ptr, ptr %1, align 8, !tbaa !4
  %5 = call ptr @ossl_provider_find(ptr noundef null, ptr noundef %4, i32 noundef 0)
  store ptr %5, ptr %2, align 8, !tbaa !9
  %6 = call i32 @test_ptr(ptr noundef @.str.6, i32 noundef 96, ptr noundef @.str.26, ptr noundef %5)
  %7 = icmp ne i32 %6, 0
  br i1 %7, label %8, label %13

8:                                                ; preds = %0
  %9 = load ptr, ptr %2, align 8, !tbaa !9
  %10 = load ptr, ptr %3, align 8, !tbaa !4
  %11 = call i32 @test_provider(ptr noundef %9, ptr noundef %10)
  %12 = icmp ne i32 %11, 0
  br label %13

13:                                               ; preds = %8, %0
  %14 = phi i1 [ false, %0 ], [ %12, %8 ]
  %15 = zext i1 %14 to i32
  call void @llvm.lifetime.end.p0(i64 8, ptr %3) #3
  call void @llvm.lifetime.end.p0(i64 8, ptr %2) #3
  call void @llvm.lifetime.end.p0(i64 8, ptr %1) #3
  ret i32 %15
}