; Function Attrs: nounwind uwtable
define internal range(i32 0, 2) i32 @test_configured_provider() #0 {
  %1 = tail call ptr @ossl_provider_find(ptr noundef null, ptr noundef nonnull @.str.24, i32 noundef 0) #2
  %2 = tail call i32 @test_ptr(ptr noundef nonnull @.str.6, i32 noundef 96, ptr noundef nonnull @.str.26, ptr noundef %1) #2
  %.not = icmp eq i32 %2, 0
  br i1 %.not, label %5, label %3

3:                                                ; preds = %0
  %4 = tail call fastcc i32 @test_provider(ptr noundef %1, ptr noundef nonnull @.str.25)
  br label %5

5:                                                ; preds = %3, %0
  %6 = phi i32 [ 0, %0 ], [ %4, %3 ]
  ret i32 %6
}